target datalayout = "e-m:e-p270:32:32-p271:32:32-p272:64:64-i64:64-i128:128-f80:128-n8:16:32:64-S128"
target triple = "x86_64-pc-linux-gnu"

%union.LWLockPadded = type { %struct.LWLock, [112 x i8] }
%struct.LWLock = type { i16, %struct.pg_atomic_uint32, %struct.proclist_head }
%struct.pg_atomic_uint32 = type { i32 }
%struct.proclist_head = type { i32, i32 }
%struct.ReplicationState = type { i16, i64, i64, i32, %struct.ConditionVariable, %struct.LWLock }
%struct.ConditionVariable = type { i8, %struct.proclist_head }

@MainLWLockArray = external global ptr, align 8
@session_replication_state = internal global ptr null, align 8
@MyProcPid = external global i32, align 4

; Function Attrs: nounwind uwtable
define internal void @ReplicationOriginExitCleanup(i32 noundef %0, i64 noundef %1) #0 {
  %3 = alloca i32, align 4
  %4 = alloca i64, align 8
  %5 = alloca ptr, align 8
  %6 = alloca i32, align 4
  store i32 %0, ptr %3, align 4
  store i64 %1, ptr %4, align 8
  call void @llvm.lifetime.start.p0(i64 8, ptr %5) #9
  store ptr null, ptr %5, align 8
  %7 = load ptr, ptr @session_replication_state, align 8
  %8 = icmp eq ptr %7, null
  br i1 %8, label %9, label %10

9:                                                ; preds = %2
  store i32 1, ptr %6, align 4
  br label %32

10:                                               ; preds = %2
  %11 = load ptr, ptr @MainLWLockArray, align 8
  %12 = getelementptr inbounds %union.LWLockPadded, ptr %11, i64 40
  %13 = call zeroext i1 @LWLockAcquire(ptr noundef %12, i32 noundef 0)
  %14 = load ptr, ptr @session_replication_state, align 8
  %15 = getelementptr inbounds nuw %struct.ReplicationState, ptr %14, i32 0, i32 3
  %16 = load i32, ptr %15, align 8
  %17 = load i32, ptr @MyProcPid, align 4
  %18 = icmp eq i32 %16, %17
  br i1 %18, label %19, label %24

19:                                               ; preds = %10
  %20 = load ptr, ptr @session_replication_state, align 8
  %21 = getelementptr inbounds nuw %struct.ReplicationState, ptr %20, i32 0, i32 4
  store ptr %21, ptr %5, align 8
  %22 = load ptr, ptr @session_replication_state, align 8
  %23 = getelementptr inbounds nuw %struct.ReplicationState, ptr %22, i32 0, i32 3
  store i32 0, ptr %23, align 8
  store ptr null, ptr @session_replication_state, align 8
  br label %24

24:                                               ; preds = %19, %10
  %25 = load ptr, ptr @MainLWLockArray, align 8
  %26 = getelementptr inbounds %union.LWLockPadded, ptr %25, i64 40
  call void @LWLockRelease(ptr noundef %26)
  %27 = load ptr, ptr %5, align 8
  %28 = icmp ne ptr %27, null
  br i1 %28, label %29, label %31

29:                                               ; preds = %24
  %30 = load ptr, ptr %5, align 8
  call void @ConditionVariableBroadcast(ptr noundef %30)
  br label %31

31:                                               ; preds = %29, %24
  store i32 0, ptr %6, align 4
  br label %32

32:                                               ; preds = %31, %9
  call void @llvm.lifetime.end.p0(i64 8, ptr %5) #9
  %33 = load i32, ptr %6, align 4
  switch i32 %33, label %35 [
    i32 0, label %34
    i32 1, label %34
  ]

34:                                               ; preds = %32, %32
  ret void

35:                                               ; preds = %32
  unreachable
}