; Function Attrs: nounwind uwtable
define internal void @ReplicationOriginExitCleanup(i32 %0, i64 %1) #0 {
  %3 = load ptr, ptr @session_replication_state, align 8
  %4 = icmp eq ptr %3, null
  br i1 %4, label %20, label %5

5:                                                ; preds = %2
  %6 = load ptr, ptr @MainLWLockArray, align 8
  %7 = getelementptr inbounds nuw i8, ptr %6, i64 5120
  %8 = tail call zeroext i1 @LWLockAcquire(ptr noundef nonnull %7, i32 noundef 0) #10
  %9 = load ptr, ptr @session_replication_state, align 8
  %10 = getelementptr inbounds nuw i8, ptr %9, i64 24
  %11 = load i32, ptr %10, align 8
  %12 = load i32, ptr @MyProcPid, align 4
  %13 = icmp eq i32 %11, %12
  br i1 %13, label %16, label %.thread

.thread:                                          ; preds = %5
  %14 = load ptr, ptr @MainLWLockArray, align 8
  %15 = getelementptr inbounds nuw i8, ptr %14, i64 5120
  tail call void @LWLockRelease(ptr noundef nonnull %15) #10
  br label %20

16:                                               ; preds = %5
  %17 = getelementptr inbounds nuw i8, ptr %9, i64 28
  store i32 0, ptr %10, align 8
  store ptr null, ptr @session_replication_state, align 8
  %18 = load ptr, ptr @MainLWLockArray, align 8
  %19 = getelementptr inbounds nuw i8, ptr %18, i64 5120
  tail call void @LWLockRelease(ptr noundef nonnull %19) #10
  tail call void @ConditionVariableBroadcast(ptr noundef nonnull %17) #10
  br label %20

20:                                               ; preds = %.thread, %16, %2
  ret void
}